; Function Attrs: mustprogress nounwind uwtable
define internal fastcc void @_ZL22print_compiler_threadsR12stringStream(ptr noundef nonnull align 8 dereferenceable(129) %0) unnamed_addr #0 {
  %2 = alloca %class.LogStream, align 8
  %3 = load i8, ptr @TraceCompilerThreads, align 1
  %4 = trunc i8 %3 to i1
  br i1 %4, label %5, label %11

5:                                                ; preds = %1
  %6 = load ptr, ptr @tty, align 8
  %7 = getelementptr inbounds i8, ptr %6, i64 32
  %8 = tail call noundef i64 @_ZNK9TimeStamp12millisecondsEv(ptr noundef nonnull align 8 dereferenceable(8) %7) #20
  %9 = trunc i64 %8 to i32
  %10 = tail call noundef ptr @_ZNK12stringStream9as_stringEb(ptr noundef nonnull align 8 dereferenceable(129) %0, i1 noundef zeroext false) #20
  tail call void (ptr, ptr, ...) @_ZN12outputStream8print_crEPKcz(ptr noundef nonnull align 8 dereferenceable(56) %6, ptr noundef nonnull @.str.240, i32 noundef %9, ptr noundef %10) #20
  br label %11

11:                                               ; preds = %5, %1
  %12 = load volatile ptr, ptr getelementptr inbounds (i8, ptr @_ZN16LogTagSetMappingILN6LogTag4typeE65ELS1_159ELS1_0ELS1_0ELS1_0ELS1_0EE7_tagsetE, i64 56), align 8
  %.not = icmp eq ptr %12, null
  br i1 %.not, label %17, label %13

13:                                               ; preds = %11
  call void @_ZN12outputStreamC2Eb(ptr noundef nonnull align 8 dereferenceable(56) %2, i1 noundef zeroext false) #20
  store ptr getelementptr inbounds inrange(-16, 40) (i8, ptr @_ZTV17LogStreamImplBase, i64 16), ptr %2, align 8
  %14 = getelementptr inbounds i8, ptr %2, i64 56
  call void @_ZN17LogStreamImplBase10LineBufferC1Ev(ptr noundef nonnull align 8 dereferenceable(88) %14) #20
  %15 = getelementptr inbounds i8, ptr %2, i64 144
  store i32 2, ptr %15, align 8
  %.sroa.21.0..sroa_idx.i.i = getelementptr inbounds i8, ptr %2, i64 152
  store ptr @_ZN16LogTagSetMappingILN6LogTag4typeE65ELS1_159ELS1_0ELS1_0ELS1_0ELS1_0EE7_tagsetE, ptr %.sroa.21.0..sroa_idx.i.i, align 8
  store ptr getelementptr inbounds inrange(-16, 40) (i8, ptr @_ZTV9LogStream, i64 16), ptr %2, align 8
  %16 = call noundef ptr @_ZNK12stringStream9as_stringEb(ptr noundef nonnull align 8 dereferenceable(129) %0, i1 noundef zeroext false) #20
  call void (ptr, ptr, ...) @_ZN12outputStream8print_crEPKcz(ptr noundef nonnull align 8 dereferenceable(56) %2, ptr noundef nonnull @.str.16, ptr noundef %16) #20
  call void @_ZN13LogStreamImplI15LogTargetHandleED2Ev(ptr noundef nonnull align 8 dereferenceable(160) %2) #20
  br label %17

17:                                               ; preds = %13, %11
  ret void
}